target datalayout = "e-m:e-p270:32:32-p271:32:32-p272:64:64-i64:64-i128:128-f80:128-n8:16:32:64-S128"
target triple = "x86_64-pc-linux-gnu"

%"class.boost::log::v2_mt_posix::attribute_value_set" = type { ptr }
%"struct.boost::log::v2_mt_posix::attribute_value_set::implementation" = type { ptr, ptr, ptr, %"class.boost::intrusive::list", ptr, ptr, [16 x %"struct.boost::log::v2_mt_posix::attribute_value_set::implementation::bucket"] }
%"class.boost::intrusive::list" = type { %"class.boost::intrusive::list_impl" }
%"class.boost::intrusive::list_impl" = type { %"struct.boost::intrusive::list_impl<boost::intrusive::derivation_value_traits<boost::log::v2_mt_posix::attribute_value_set::node, boost::log::v2_mt_posix::attribute_value_set::implementation::node_traits, boost::intrusive::normal_link>, unsigned long, true, void>::data_t" }
%"struct.boost::intrusive::list_impl<boost::intrusive::derivation_value_traits<boost::log::v2_mt_posix::attribute_value_set::node, boost::log::v2_mt_posix::attribute_value_set::implementation::node_traits, boost::intrusive::normal_link>, unsigned long, true, void>::data_t" = type { %"struct.boost::intrusive::list_impl<boost::intrusive::derivation_value_traits<boost::log::v2_mt_posix::attribute_value_set::node, boost::log::v2_mt_posix::attribute_value_set::implementation::node_traits, boost::intrusive::normal_link>, unsigned long, true, void>::root_plus_size" }
%"struct.boost::intrusive::list_impl<boost::intrusive::derivation_value_traits<boost::log::v2_mt_posix::attribute_value_set::node, boost::log::v2_mt_posix::attribute_value_set::implementation::node_traits, boost::intrusive::normal_link>, unsigned long, true, void>::root_plus_size" = type { %"struct.boost::intrusive::detail::size_holder", %"struct.boost::intrusive::detail::default_header_holder" }
%"struct.boost::intrusive::detail::size_holder" = type { i64 }
%"struct.boost::intrusive::detail::default_header_holder" = type { %"struct.boost::log::v2_mt_posix::attribute_value_set::node_base" }
%"struct.boost::log::v2_mt_posix::attribute_value_set::node_base" = type { ptr, ptr }
%"struct.boost::log::v2_mt_posix::attribute_value_set::implementation::bucket" = type { ptr, ptr }
%"class.boost::log::v2_mt_posix::attribute_value_set::const_iterator" = type { ptr, ptr }
%"class.boost::log::v2_mt_posix::attribute_name" = type { i32 }
%"struct.boost::log::v2_mt_posix::attribute_value_set::node" = type <{ %"struct.boost::log::v2_mt_posix::attribute_value_set::node_base", %"struct.std::pair.3", i8, [7 x i8] }>
%"struct.std::pair.3" = type { %"class.boost::log::v2_mt_posix::attribute_name", %"class.boost::log::v2_mt_posix::attribute_value" }
%"class.boost::log::v2_mt_posix::attribute_value" = type { %"class.boost::intrusive_ptr" }
%"class.boost::intrusive_ptr" = type { ptr }

; Function Attrs: inlinehint mustprogress nounwind uwtable
define linkonce_odr hidden noundef ptr @_ZN5boost11move_detail9addressofINS_3log11v2_mt_posix19attribute_value_set4nodeEEEPT_RS6_(ptr noundef nonnull align 8 dereferenceable(33) %0) #2 comdat {
  %2 = alloca ptr, align 8
  store ptr %0, ptr %2, align 8, !tbaa !3
  %3 = load ptr, ptr %2, align 8, !tbaa !3
  ret ptr %3
}

; Function Attrs: inlinehint mustprogress nounwind uwtable
define linkonce_odr hidden noundef ptr @_ZN5boost9intrusive14pointer_traitsIPNS_3log11v2_mt_posix19attribute_value_set4nodeEE10pointer_toERS5_(ptr noundef nonnull align 8 dereferenceable(33) %0) #2 comdat align 2 {
  %2 = alloca ptr, align 8
  store ptr %0, ptr %2, align 8, !tbaa !3
  %3 = load ptr, ptr %2, align 8, !tbaa !3
  %4 = call noundef ptr @_ZN5boost11move_detail9addressofINS_3log11v2_mt_posix19attribute_value_set4nodeEEEPT_RS6_(ptr noundef nonnull align 8 dereferenceable(33) %3) #14
  ret ptr %4
}

; Function Attrs: inlinehint mustprogress nounwind uwtable
define linkonce_odr hidden noundef ptr @_ZN5boost9intrusive23derivation_value_traitsINS_3log11v2_mt_posix19attribute_value_set4nodeENS4_14implementation11node_traitsELNS0_14link_mode_typeE0EE12to_value_ptrEPNS4_9node_baseE(ptr noundef %0) #2 comdat align 2 {
  %2 = alloca ptr, align 8
  store ptr %0, ptr %2, align 8, !tbaa !3
  %3 = load ptr, ptr %2, align 8, !tbaa !3
  %4 = call noundef ptr @_ZN5boost9intrusive14pointer_traitsIPNS_3log11v2_mt_posix19attribute_value_set4nodeEE10pointer_toERS5_(ptr noundef nonnull align 8 dereferenceable(33) %3) #14
  ret ptr %4
}

; Function Attrs: mustprogress nounwind uwtable
define linkonce_odr hidden noundef ptr @_ZN5boost3log11v2_mt_posix19attribute_value_set14implementation11node_traits8get_nextEPKNS2_9node_baseE(ptr noundef %0) #1 comdat align 2 {
  %2 = alloca ptr, align 8
  store ptr %0, ptr %2, align 8, !tbaa !3
  %3 = load ptr, ptr %2, align 8, !tbaa !3
  %4 = getelementptr inbounds nuw %"struct.boost::log::v2_mt_posix::attribute_value_set::node_base", ptr %3, i32 0, i32 1
  %5 = load ptr, ptr %4, align 8, !tbaa !48
  ret ptr %5
}

; Function Attrs: mustprogress nounwind uwtable
define linkonce_odr hidden noundef zeroext i1 @_ZNK5boost3log11v2_mt_posix14attribute_nameeqERKS2_(ptr noundef nonnull align 4 dereferenceable(4) %0, ptr noundef nonnull align 4 dereferenceable(4) %1) #1 comdat align 2 {
  %3 = alloca ptr, align 8
  %4 = alloca ptr, align 8
  store ptr %0, ptr %3, align 8, !tbaa !3
  store ptr %1, ptr %4, align 8, !tbaa !3
  %5 = load ptr, ptr %3, align 8
  %6 = getelementptr inbounds nuw %"class.boost::log::v2_mt_posix::attribute_name", ptr %5, i32 0, i32 0
  %7 = load i32, ptr %6, align 4, !tbaa !57
  %8 = load ptr, ptr %4, align 8, !tbaa !3
  %9 = getelementptr inbounds nuw %"class.boost::log::v2_mt_posix::attribute_name", ptr %8, i32 0, i32 0
  %10 = load i32, ptr %9, align 4, !tbaa !57
  %11 = icmp eq i32 %7, %10
  ret i1 %11
}

; Function Attrs: mustprogress nounwind uwtable
define linkonce_odr hidden noundef ptr @_ZN5boost3log11v2_mt_posix19attribute_value_set14implementation14find_in_bucketENS1_14attribute_nameERKNS3_6bucketE(ptr noundef nonnull align 8 dereferenceable(320) %0, i32 %1, ptr noundef nonnull align 8 dereferenceable(16) %2) #1 comdat align 2 {
  %4 = alloca %"class.boost::log::v2_mt_posix::attribute_name", align 4
  %5 = alloca ptr, align 8
  %6 = alloca ptr, align 8
  %7 = alloca ptr, align 8
  %8 = getelementptr inbounds nuw %"class.boost::log::v2_mt_posix::attribute_name", ptr %4, i32 0, i32 0
  store i32 %1, ptr %8, align 4
  store ptr %0, ptr %5, align 8, !tbaa !3
  store ptr %2, ptr %6, align 8, !tbaa !3
  call void @llvm.lifetime.start.p0(i64 8, ptr %7) #14
  %9 = load ptr, ptr %6, align 8, !tbaa !3
  %10 = getelementptr inbounds nuw %"struct.boost::log::v2_mt_posix::attribute_value_set::implementation::bucket", ptr %9, i32 0, i32 0
  %11 = load ptr, ptr %10, align 8, !tbaa !30
  store ptr %11, ptr %7, align 8, !tbaa !3
  br label %12

12:                                               ; preds = %27, %3
  %13 = load ptr, ptr %7, align 8, !tbaa !3
  %14 = load ptr, ptr %6, align 8, !tbaa !3
  %15 = getelementptr inbounds nuw %"struct.boost::log::v2_mt_posix::attribute_value_set::implementation::bucket", ptr %14, i32 0, i32 1
  %16 = load ptr, ptr %15, align 8, !tbaa !45
  %17 = icmp ne ptr %13, %16
  br i1 %17, label %18, label %25

18:                                               ; preds = %12
  %19 = load ptr, ptr %7, align 8, !tbaa !3
  %20 = getelementptr inbounds nuw %"struct.boost::log::v2_mt_posix::attribute_value_set::node", ptr %19, i32 0, i32 1
  %21 = getelementptr inbounds nuw %"struct.std::pair.3", ptr %20, i32 0, i32 0
  %22 = call noundef i32 @_ZNK5boost3log11v2_mt_posix14attribute_name2idEv(ptr noundef nonnull align 4 dereferenceable(4) %21) #14
  %23 = call noundef i32 @_ZNK5boost3log11v2_mt_posix14attribute_name2idEv(ptr noundef nonnull align 4 dereferenceable(4) %4) #14
  %24 = icmp ult i32 %22, %23
  br label %25

25:                                               ; preds = %18, %12
  %26 = phi i1 [ false, %12 ], [ %24, %18 ]
  br i1 %26, label %27, label %31

27:                                               ; preds = %25
  %28 = load ptr, ptr %7, align 8, !tbaa !3
  %29 = call noundef ptr @_ZN5boost3log11v2_mt_posix19attribute_value_set14implementation11node_traits8get_nextEPKNS2_9node_baseE(ptr noundef %28)
  %30 = call noundef ptr @_ZN5boost9intrusive23derivation_value_traitsINS_3log11v2_mt_posix19attribute_value_set4nodeENS4_14implementation11node_traitsELNS0_14link_mode_typeE0EE12to_value_ptrEPNS4_9node_baseE(ptr noundef %29) #14
  store ptr %30, ptr %7, align 8, !tbaa !3
  br label %12, !llvm.loop !66

31:                                               ; preds = %25
  %32 = load ptr, ptr %7, align 8, !tbaa !3
  call void @llvm.lifetime.end.p0(i64 8, ptr %7) #14
  ret ptr %32
}

; Function Attrs: mustprogress nounwind uwtable
define linkonce_odr hidden noundef nonnull align 8 dereferenceable(16) ptr @_ZN5boost3log11v2_mt_posix19attribute_value_set14implementation10get_bucketEj(ptr noundef nonnull align 8 dereferenceable(320) %0, i32 noundef %1) #1 comdat align 2 {
  %3 = alloca ptr, align 8
  %4 = alloca i32, align 4
  store ptr %0, ptr %3, align 8, !tbaa !3
  store i32 %1, ptr %4, align 4, !tbaa !28
  %5 = load ptr, ptr %3, align 8
  %6 = getelementptr inbounds nuw %"struct.boost::log::v2_mt_posix::attribute_value_set::implementation", ptr %5, i32 0, i32 6
  %7 = load i32, ptr %4, align 4, !tbaa !28
  %8 = zext i32 %7 to i64
  %9 = and i64 %8, 15
  %10 = getelementptr inbounds nuw [16 x %"struct.boost::log::v2_mt_posix::attribute_value_set::implementation::bucket"], ptr %6, i64 0, i64 %9
  ret ptr %10
}

; Function Attrs: mustprogress nounwind uwtable
define linkonce_odr hidden noundef i32 @_ZNK5boost3log11v2_mt_posix14attribute_name2idEv(ptr noundef nonnull align 4 dereferenceable(4) %0) #1 comdat align 2 {
  %2 = alloca ptr, align 8
  store ptr %0, ptr %2, align 8, !tbaa !3
  %3 = load ptr, ptr %2, align 8
  %4 = getelementptr inbounds nuw %"class.boost::log::v2_mt_posix::attribute_name", ptr %3, i32 0, i32 0
  %5 = load i32, ptr %4, align 4, !tbaa !57
  ret i32 %5
}

; Function Attrs: mustprogress nounwind uwtable
define linkonce_odr hidden void @_ZN5boost3log11v2_mt_posix19attribute_value_set14const_iteratorC2EPNS2_9node_baseEPS2_(ptr noundef nonnull align 8 dereferenceable(16) %0, ptr noundef %1, ptr noundef %2) unnamed_addr #1 comdat align 2 {
  %4 = alloca ptr, align 8
  %5 = alloca ptr, align 8
  %6 = alloca ptr, align 8
  store ptr %0, ptr %4, align 8, !tbaa !3
  store ptr %1, ptr %5, align 8, !tbaa !3
  store ptr %2, ptr %6, align 8, !tbaa !3
  %7 = load ptr, ptr %4, align 8
  %8 = getelementptr inbounds nuw %"class.boost::log::v2_mt_posix::attribute_value_set::const_iterator", ptr %7, i32 0, i32 0
  %9 = load ptr, ptr %5, align 8, !tbaa !3
  store ptr %9, ptr %8, align 8, !tbaa !24
  %10 = getelementptr inbounds nuw %"class.boost::log::v2_mt_posix::attribute_value_set::const_iterator", ptr %7, i32 0, i32 1
  %11 = load ptr, ptr %6, align 8, !tbaa !3
  store ptr %11, ptr %10, align 8, !tbaa !26
  ret void
}

; Function Attrs: mustprogress uwtable
define linkonce_odr hidden noundef ptr @_ZN5boost3log11v2_mt_posix19attribute_value_set14implementation4findENS1_14attribute_nameE(ptr noundef nonnull align 8 dereferenceable(320) %0, i32 %1) #0 comdat align 2 {
  %3 = alloca ptr, align 8
  %4 = alloca %"class.boost::log::v2_mt_posix::attribute_name", align 4
  %5 = alloca ptr, align 8
  %6 = alloca ptr, align 8
  %7 = alloca ptr, align 8
  %8 = alloca %"class.boost::log::v2_mt_posix::attribute_name", align 4
  %9 = alloca i32, align 4
  %10 = alloca %"class.boost::log::v2_mt_posix::attribute_name", align 4
  %11 = getelementptr inbounds nuw %"class.boost::log::v2_mt_posix::attribute_name", ptr %4, i32 0, i32 0
  store i32 %1, ptr %11, align 4
  store ptr %0, ptr %5, align 8, !tbaa !3
  %12 = load ptr, ptr %5, align 8
  call void @llvm.lifetime.start.p0(i64 8, ptr %6) #14
  %13 = call noundef i32 @_ZNK5boost3log11v2_mt_posix14attribute_name2idEv(ptr noundef nonnull align 4 dereferenceable(4) %4) #14
  %14 = call noundef nonnull align 8 dereferenceable(16) ptr @_ZN5boost3log11v2_mt_posix19attribute_value_set14implementation10get_bucketEj(ptr noundef nonnull align 8 dereferenceable(320) %12, i32 noundef %13)
  store ptr %14, ptr %6, align 8, !tbaa !3
  call void @llvm.lifetime.start.p0(i64 8, ptr %7) #14
  %15 = load ptr, ptr %6, align 8, !tbaa !3
  %16 = getelementptr inbounds nuw %"struct.boost::log::v2_mt_posix::attribute_value_set::implementation::bucket", ptr %15, i32 0, i32 0
  %17 = load ptr, ptr %16, align 8, !tbaa !30
  store ptr %17, ptr %7, align 8, !tbaa !3
  %18 = load ptr, ptr %7, align 8, !tbaa !3
  %19 = icmp ne ptr %18, null
  br i1 %19, label %20, label %32

20:                                               ; preds = %2
  call void @llvm.memcpy.p0.p0.i64(ptr align 4 %8, ptr align 4 %4, i64 4, i1 false), !tbaa.struct !27
  %21 = load ptr, ptr %6, align 8, !tbaa !3
  %22 = getelementptr inbounds nuw %"class.boost::log::v2_mt_posix::attribute_name", ptr %8, i32 0, i32 0
  %23 = load i32, ptr %22, align 4
  %24 = call noundef ptr @_ZN5boost3log11v2_mt_posix19attribute_value_set14implementation14find_in_bucketENS1_14attribute_nameERKNS3_6bucketE(ptr noundef nonnull align 8 dereferenceable(320) %12, i32 %23, ptr noundef nonnull align 8 dereferenceable(16) %21)
  store ptr %24, ptr %7, align 8, !tbaa !3
  %25 = load ptr, ptr %7, align 8, !tbaa !3
  %26 = getelementptr inbounds nuw %"struct.boost::log::v2_mt_posix::attribute_value_set::node", ptr %25, i32 0, i32 1
  %27 = getelementptr inbounds nuw %"struct.std::pair.3", ptr %26, i32 0, i32 0
  %28 = call noundef zeroext i1 @_ZNK5boost3log11v2_mt_posix14attribute_nameeqERKS2_(ptr noundef nonnull align 4 dereferenceable(4) %27, ptr noundef nonnull align 4 dereferenceable(4) %4) #14
  br i1 %28, label %29, label %31

29:                                               ; preds = %20
  %30 = load ptr, ptr %7, align 8, !tbaa !3
  store ptr %30, ptr %3, align 8
  store i32 1, ptr %9, align 4
  br label %38

31:                                               ; preds = %20
  br label %32

32:                                               ; preds = %31, %2
  call void @llvm.memcpy.p0.p0.i64(ptr align 4 %10, ptr align 4 %4, i64 4, i1 false), !tbaa.struct !27
  %33 = load ptr, ptr %6, align 8, !tbaa !3
  %34 = load ptr, ptr %7, align 8, !tbaa !3
  %35 = getelementptr inbounds nuw %"class.boost::log::v2_mt_posix::attribute_name", ptr %10, i32 0, i32 0
  %36 = load i32, ptr %35, align 4
  %37 = call noundef ptr @_ZN5boost3log11v2_mt_posix19attribute_value_set14implementation11freeze_nodeENS1_14attribute_nameERNS3_6bucketEPNS2_4nodeE(ptr noundef nonnull align 8 dereferenceable(320) %12, i32 %36, ptr noundef nonnull align 8 dereferenceable(16) %33, ptr noundef %34)
  store ptr %37, ptr %3, align 8
  store i32 1, ptr %9, align 4
  br label %38

38:                                               ; preds = %32, %29
  call void @llvm.lifetime.end.p0(i64 8, ptr %7) #14
  call void @llvm.lifetime.end.p0(i64 8, ptr %6) #14
  %39 = load ptr, ptr %3, align 8
  ret ptr %39
}

; Function Attrs: mustprogress uwtable
define { ptr, ptr } @_ZNK5boost3log11v2_mt_posix19attribute_value_set4findENS1_14attribute_nameE(ptr noundef nonnull align 8 dereferenceable(8) %0, i32 %1) #0 align 2 {
  %3 = alloca %"class.boost::log::v2_mt_posix::attribute_value_set::const_iterator", align 8
  %4 = alloca %"class.boost::log::v2_mt_posix::attribute_name", align 4
  %5 = alloca ptr, align 8
  %6 = alloca %"class.boost::log::v2_mt_posix::attribute_name", align 4
  %7 = getelementptr inbounds nuw %"class.boost::log::v2_mt_posix::attribute_name", ptr %4, i32 0, i32 0
  store i32 %1, ptr %7, align 4
  store ptr %0, ptr %5, align 8, !tbaa !3
  %8 = load ptr, ptr %5, align 8
  %9 = getelementptr inbounds nuw %"class.boost::log::v2_mt_posix::attribute_value_set", ptr %8, i32 0, i32 0
  %10 = load ptr, ptr %9, align 8, !tbaa !9
  call void @llvm.memcpy.p0.p0.i64(ptr align 4 %6, ptr align 4 %4, i64 4, i1 false), !tbaa.struct !27
  %11 = getelementptr inbounds nuw %"class.boost::log::v2_mt_posix::attribute_name", ptr %6, i32 0, i32 0
  %12 = load i32, ptr %11, align 4
  %13 = call noundef ptr @_ZN5boost3log11v2_mt_posix19attribute_value_set14implementation4findENS1_14attribute_nameE(ptr noundef nonnull align 8 dereferenceable(320) %10, i32 %12)
  call void @_ZN5boost3log11v2_mt_posix19attribute_value_set14const_iteratorC2EPNS2_9node_baseEPS2_(ptr noundef nonnull align 8 dereferenceable(16) %3, ptr noundef %13, ptr noundef %8) #14
  %14 = load { ptr, ptr }, ptr %3, align 8
  ret { ptr, ptr } %14
}