; Function Attrs: mustprogress uwtable
define { ptr, ptr } @_ZNK5boost3log11v2_mt_posix19attribute_value_set4findENS1_14attribute_nameE(ptr noundef nonnull align 8 dereferenceable(8) %0, i32 %1) local_unnamed_addr #0 align 2 {
  %3 = load ptr, ptr %0, align 8, !tbaa !21
  %4 = getelementptr inbounds nuw i8, ptr %3, i64 64
  %5 = and i32 %1, 15
  %6 = zext nneg i32 %5 to i64
  %7 = getelementptr inbounds nuw [16 x %"struct.boost::log::v2_mt_posix::attribute_value_set::implementation::bucket"], ptr %4, i64 0, i64 %6
  %8 = load ptr, ptr %7, align 8, !tbaa !52
  %.not.i = icmp eq ptr %8, null
  br i1 %.not.i, label %20, label %9

9:                                                ; preds = %2
  %10 = getelementptr inbounds nuw i8, ptr %7, i64 8
  %11 = load ptr, ptr %10, align 8, !tbaa !53
  %.not7.i.i = icmp eq ptr %8, %11
  br i1 %.not7.i.i, label %_ZN5boost3log11v2_mt_posix19attribute_value_set14implementation14find_in_bucketENS1_14attribute_nameERKNS3_6bucketE.exit.i, label %.lr.ph.i.i

.lr.ph.i.i:                                       ; preds = %9, %15
  %.08.i.i = phi ptr [ %.0.i.i, %15 ], [ %8, %9 ]
  %12 = getelementptr inbounds nuw i8, ptr %.08.i.i, i64 16
  %13 = load i32, ptr %12, align 4, !tbaa !54
  %14 = icmp ult i32 %13, %1
  br i1 %14, label %15, label %_ZN5boost3log11v2_mt_posix19attribute_value_set14implementation14find_in_bucketENS1_14attribute_nameERKNS3_6bucketE.exit.i

15:                                               ; preds = %.lr.ph.i.i
  %16 = getelementptr inbounds nuw i8, ptr %.08.i.i, i64 8
  %.0.i.i = load ptr, ptr %16, align 8, !tbaa !52
  %.not.i.i = icmp eq ptr %.0.i.i, %11
  br i1 %.not.i.i, label %_ZN5boost3log11v2_mt_posix19attribute_value_set14implementation14find_in_bucketENS1_14attribute_nameERKNS3_6bucketE.exit.i, label %.lr.ph.i.i, !llvm.loop !55

_ZN5boost3log11v2_mt_posix19attribute_value_set14implementation14find_in_bucketENS1_14attribute_nameERKNS3_6bucketE.exit.i: ; preds = %15, %.lr.ph.i.i, %9
  %.0.lcssa.i.i = phi ptr [ %8, %9 ], [ %.0.i.i, %15 ], [ %.08.i.i, %.lr.ph.i.i ]
  %17 = getelementptr inbounds nuw i8, ptr %.0.lcssa.i.i, i64 16
  %18 = load i32, ptr %17, align 4, !tbaa !54
  %19 = icmp eq i32 %18, %1
  br i1 %19, label %_ZN5boost3log11v2_mt_posix19attribute_value_set14implementation4findENS1_14attribute_nameE.exit, label %20

20:                                               ; preds = %_ZN5boost3log11v2_mt_posix19attribute_value_set14implementation14find_in_bucketENS1_14attribute_nameERKNS3_6bucketE.exit.i, %2
  %.010.i = phi ptr [ %.0.lcssa.i.i, %_ZN5boost3log11v2_mt_posix19attribute_value_set14implementation14find_in_bucketENS1_14attribute_nameERKNS3_6bucketE.exit.i ], [ null, %2 ]
  %21 = tail call noundef ptr @_ZN5boost3log11v2_mt_posix19attribute_value_set14implementation11freeze_nodeENS1_14attribute_nameERNS3_6bucketEPNS2_4nodeE(ptr noundef nonnull align 8 dereferenceable(320) %3, i32 %1, ptr noundef nonnull align 8 dereferenceable(16) %7, ptr noundef %.010.i)
  br label %_ZN5boost3log11v2_mt_posix19attribute_value_set14implementation4findENS1_14attribute_nameE.exit

_ZN5boost3log11v2_mt_posix19attribute_value_set14implementation4findENS1_14attribute_nameE.exit: ; preds = %_ZN5boost3log11v2_mt_posix19attribute_value_set14implementation14find_in_bucketENS1_14attribute_nameERKNS3_6bucketE.exit.i, %20
  %.0.i = phi ptr [ %21, %20 ], [ %.0.lcssa.i.i, %_ZN5boost3log11v2_mt_posix19attribute_value_set14implementation14find_in_bucketENS1_14attribute_nameERKNS3_6bucketE.exit.i ]
  %.fca.0.insert = insertvalue { ptr, ptr } poison, ptr %.0.i, 0
  %.fca.1.insert = insertvalue { ptr, ptr } %.fca.0.insert, ptr %0, 1
  ret { ptr, ptr } %.fca.1.insert
}